Certificate:
    Data:
        Version: 3 (0x2)
        Serial Number: 1 (0x1)
    Signature Algorithm: sha256WithRSAEncryption
        Issuer: C=SE, O=Safedc.net, OU=Datacenter Operations, CN=Safedc.net Root CA
        Validity
            Not Before: Feb 20 20:38:54 2018 GMT
            Not After : Feb 19 20:38:54 2023 GMT
        Subject: C=SE, O=Safedc.net, OU=Datacenter Operations, CN=Safedc.net External CA
        Subject Public Key Info:
            Public Key Algorithm: rsaEncryption
                Public-Key: (2048 bit)
                Modulus:
                    00:cc:66:7d:60:fd:e9:c7:f2:ed:9e:f2:f5:f1:83:
                    ad:5b:d8:0c:73:86:bd:d4:5b:d5:0c:ac:08:54:e1:
                    90:d4:87:f0:cd:9f:6f:5f:7b:63:a4:4a:b5:63:79:
                    f0:64:ba:cc:84:ec:b0:c9:b3:64:6c:ab:93:36:11:
                    c5:b0:74:8b:82:62:5f:9f:48:e9:4b:56:74:05:0f:
                    43:f8:53:a1:3d:46:14:51:21:84:77:05:5f:bd:3d:
                    d5:c9:87:ba:14:9e:da:51:a2:93:99:12:61:cb:ad:
                    34:be:ad:b2:70:f2:30:18:1a:b3:c0:79:c7:d3:bc:
                    24:9d:56:3e:01:1b:d4:b0:f2:f3:e5:0e:2a:b3:25:
                    6c:3a:30:0e:21:b9:6b:e8:67:7a:83:1d:56:af:a1:
                    2d:65:47:40:54:00:a1:9b:4e:96:97:e1:62:0f:f2:
                    28:a8:e4:62:43:01:de:c5:c9:96:0f:5f:8e:e7:79:
                    42:49:5f:11:4e:27:14:c1:29:12:f3:44:cf:b4:b0:
                    a3:fa:15:40:fb:87:84:2c:18:cc:92:50:91:b4:66:
                    8e:a5:c3:ff:a7:50:86:f6:24:6e:10:a3:2d:30:4c:
                    1e:52:cd:f9:87:68:b4:4e:db:c4:46:58:cd:e8:3b:
                    f3:a4:54:5f:1b:e4:8f:29:e5:67:20:c4:8f:94:3f:
                    1f:0b
                Exponent: 65537 (0x10001)
        X509v3 extensions:
            X509v3 Subject Key Identifier: 
                14:9F:15:9C:32:CB:5C:14:63:29:7B:08:BF:F2:44:44:46:32:DF:A0
            X509v3 Authority Key Identifier: 
                keyid:94:3A:10:70:5F:E2:29:7D:34:3C:AA:06:96:0E:7E:11:A4:7C:03:67
                DirName:/C=SE/O=Safedc.net/OU=Datacenter Operations/CN=Safedc.net Root CA
                serial:00

            X509v3 CRL Distribution Points: 

                Full Name:
                  URI:http://pki.safedc.net/root.crl

            X509v3 Basic Constraints: critical
                CA:TRUE, pathlen:0
            X509v3 Key Usage: critical
                Digital Signature, Certificate Sign, CRL Sign
    Signature Algorithm: sha256WithRSAEncryption
         32:14:dd:85:51:4c:d6:0a:2e:53:9f:ef:52:4b:11:c3:21:ca:
         08:5a:8f:5b:84:78:bf:2c:73:af:c5:cf:41:25:b8:a0:8a:f8:
         57:62:13:e5:00:1a:05:1b:cb:da:b7:a1:ed:03:b2:34:17:5c:
         b4:f3:e5:64:f1:1d:47:dd:a7:44:c8:bb:e6:2c:df:cf:2b:bf:
         a5:1b:aa:14:8b:30:74:d7:b6:d2:28:0a:5c:85:ca:62:59:d0:
         4d:3d:05:cf:5d:43:4e:3f:c2:f0:aa:b4:58:d0:a0:32:82:06:
         ed:71:ad:3a:80:ed:22:1e:8d:6d:61:b4:99:13:6e:76:88:1f:
         12:03:c4:39:16:ba:2c:e2:b4:ae:66:73:a5:8a:5b:28:81:59:
         dc:0c:bb:2b:da:c0:ee:68:b3:8c:b2:cd:3d:73:58:3e:d2:b9:
         ab:7f:08:02:60:2c:24:7b:92:76:ff:b0:4c:8b:a0:bb:ef:c0:
         4f:10:7b:e4:e1:fa:c2:7b:5b:56:e8:a4:4d:3a:f0:db:6f:42:
         9f:bc:26:de:f5:17:0a:3d:93:1e:ba:5d:70:29:d1:fa:96:73:
         b1:b7:ce:65:2f:c5:77:9b:a9:f7:2a:cc:01:cc:89:e1:b4:b5:
         06:3d:2c:eb:9d:ca:12:9d:39:ef:2f:e0:29:59:64:f4:92:88:
         76:74:33:08
-----BEGIN CERTIFICATE-----
MIIEQTCCAymgAwIBAgIBATANBgkqhkiG9w0BAQsFADBfMQswCQYDVQQGEwJTRTET
MBEGA1UECgwKU2FmZWRjLm5ldDEeMBwGA1UECwwVRGF0YWNlbnRlciBPcGVyYXRp
b25zMRswGQYDVQQDDBJTYWZlZGMubmV0IFJvb3QgQ0EwHhcNMTgwMjIwMjAzODU0
WhcNMjMwMjE5MjAzODU0WjBjMQswCQYDVQQGEwJTRTETMBEGA1UECgwKU2FmZWRj
Lm5ldDEeMBwGA1UECwwVRGF0YWNlbnRlciBPcGVyYXRpb25zMR8wHQYDVQQDDBZT
YWZlZGMubmV0IEV4dGVybmFsIENBMIIBIjANBgkqhkiG9w0BAQEFAAOCAQ8AMIIB
CgKCAQEAzGZ9YP3px/LtnvL18YOtW9gMc4a91FvVDKwIVOGQ1IfwzZ9vX3tjpEq1
Y3nwZLrMhOywybNkbKuTNhHFsHSLgmJfn0jpS1Z0BQ9D+FOhPUYUUSGEdwVfvT3V
yYe6FJ7aUaKTmRJhy600vq2ycPIwGBqzwHnH07wknVY+ARvUsPLz5Q4qsyVsOjAO
Iblr6Gd6gx1Wr6EtZUdAVAChm06Wl+FiD/IoqORiQwHexcmWD1+O53lCSV8RTicU
wSkS80TPtLCj+hVA+4eELBjMklCRtGaOpcP/p1CG9iRuEKMtMEweUs35h2i0TtvE
RljN6DvzpFRfG+SPKeVnIMSPlD8fCwIDAQABo4IBAjCB/zAdBgNVHQ4EFgQUFJ8V
nDLLXBRjKXsIv/JEREYy36AwgYgGA1UdIwSBgDB+gBSUOhBwX+IpfTQ8qgaWDn4R
pHwDZ6FjpGEwXzELMAkGA1UEBhMCU0UxEzARBgNVBAoMClNhZmVkYy5uZXQxHjAc
BgNVBAsMFURhdGFjZW50ZXIgT3BlcmF0aW9uczEbMBkGA1UEAwwSU2FmZWRjLm5l
dCBSb290IENBggEAMC8GA1UdHwQoMCYwJKAioCCGHmh0dHA6Ly9wa2kuc2FmZWRj
Lm5ldC9yb290LmNybDASBgNVHRMBAf8ECDAGAQH/AgEAMA4GA1UdDwEB/wQEAwIB
hjANBgkqhkiG9w0BAQsFAAOCAQEAMhTdhVFM1gouU5/vUksRwyHKCFqPW4R4vyxz
r8XPQSW4oIr4V2IT5QAaBRvL2reh7QOyNBdctPPlZPEdR92nRMi75izfzyu/pRuq
FIswdNe20igKXIXKYlnQTT0Fz11DTj/C8Kq0WNCgMoIG7XGtOoDtIh6NbWG0mRNu
dogfEgPEORa6LOK0rmZzpYpbKIFZ3Ay7K9rA7mizjLLNPXNYPtK5q38IAmAsJHuS
dv+wTIugu+/ATxB75OH6wntbVuikTTrw229Cn7wm3vUXCj2THrpdcCnR+pZzsbfO
ZS/Fd5up9yrMAcyJ4bS1Bj0s653KEp057y/gKVlk9JKIdnQzCA==
-----END CERTIFICATE-----
